target datalayout = "e-m:e-p270:32:32-p271:32:32-p272:64:64-i64:64-i128:128-f80:128-n8:16:32:64-S128"
target triple = "x86_64-pc-linux-gnu"

%struct.Node = type { i32 }
%struct.RangeFunction = type { i32, i8, i8, i8, ptr, ptr, ptr }

; Function Attrs: inlinehint nounwind uwtable
define internal ptr @newNode(i64 noundef %0, i32 noundef %1) #7 {
  %3 = alloca i64, align 8
  %4 = alloca i32, align 4
  %5 = alloca ptr, align 8
  store i64 %0, ptr %3, align 8
  store i32 %1, ptr %4, align 4
  call void @llvm.lifetime.start.p0(i64 8, ptr %5) #9
  %6 = load i64, ptr %3, align 8
  %7 = call ptr @palloc0(i64 noundef %6)
  store ptr %7, ptr %5, align 8
  %8 = load i32, ptr %4, align 4
  %9 = load ptr, ptr %5, align 8
  %10 = getelementptr inbounds nuw %struct.Node, ptr %9, i32 0, i32 0
  store i32 %8, ptr %10, align 4
  %11 = load ptr, ptr %5, align 8
  call void @llvm.lifetime.end.p0(i64 8, ptr %5) #9
  ret ptr %11
}

; Function Attrs: nounwind uwtable
define internal ptr @_readRangeFunction() #0 {
  %1 = alloca ptr, align 8
  %2 = alloca ptr, align 8
  %3 = alloca i32, align 4
  call void @llvm.lifetime.start.p0(i64 8, ptr %1) #9
  %4 = call ptr @newNode(i64 noundef 32, i32 noundef 86)
  store ptr %4, ptr %1, align 8
  call void @llvm.lifetime.start.p0(i64 8, ptr %2) #9
  call void @llvm.lifetime.start.p0(i64 4, ptr %3) #9
  %5 = call ptr @pg_strtok(ptr noundef %3)
  store ptr %5, ptr %2, align 8
  %6 = call ptr @pg_strtok(ptr noundef %3)
  store ptr %6, ptr %2, align 8
  %7 = load ptr, ptr %2, align 8
  %8 = load i8, ptr %7, align 1
  %9 = sext i8 %8 to i32
  %10 = icmp eq i32 %9, 116
  %11 = select i1 %10, i32 1, i32 0
  %12 = icmp ne i32 %11, 0
  %13 = load ptr, ptr %1, align 8
  %14 = getelementptr inbounds nuw %struct.RangeFunction, ptr %13, i32 0, i32 1
  %15 = zext i1 %12 to i8
  store i8 %15, ptr %14, align 4
  %16 = call ptr @pg_strtok(ptr noundef %3)
  store ptr %16, ptr %2, align 8
  %17 = call ptr @pg_strtok(ptr noundef %3)
  store ptr %17, ptr %2, align 8
  %18 = load ptr, ptr %2, align 8
  %19 = load i8, ptr %18, align 1
  %20 = sext i8 %19 to i32
  %21 = icmp eq i32 %20, 116
  %22 = select i1 %21, i32 1, i32 0
  %23 = icmp ne i32 %22, 0
  %24 = load ptr, ptr %1, align 8
  %25 = getelementptr inbounds nuw %struct.RangeFunction, ptr %24, i32 0, i32 2
  %26 = zext i1 %23 to i8
  store i8 %26, ptr %25, align 1
  %27 = call ptr @pg_strtok(ptr noundef %3)
  store ptr %27, ptr %2, align 8
  %28 = call ptr @pg_strtok(ptr noundef %3)
  store ptr %28, ptr %2, align 8
  %29 = load ptr, ptr %2, align 8
  %30 = load i8, ptr %29, align 1
  %31 = sext i8 %30 to i32
  %32 = icmp eq i32 %31, 116
  %33 = select i1 %32, i32 1, i32 0
  %34 = icmp ne i32 %33, 0
  %35 = load ptr, ptr %1, align 8
  %36 = getelementptr inbounds nuw %struct.RangeFunction, ptr %35, i32 0, i32 3
  %37 = zext i1 %34 to i8
  store i8 %37, ptr %36, align 2
  %38 = call ptr @pg_strtok(ptr noundef %3)
  store ptr %38, ptr %2, align 8
  %39 = call ptr @nodeRead(ptr noundef null, i32 noundef 0)
  %40 = load ptr, ptr %1, align 8
  %41 = getelementptr inbounds nuw %struct.RangeFunction, ptr %40, i32 0, i32 4
  store ptr %39, ptr %41, align 8
  %42 = call ptr @pg_strtok(ptr noundef %3)
  store ptr %42, ptr %2, align 8
  %43 = call ptr @nodeRead(ptr noundef null, i32 noundef 0)
  %44 = load ptr, ptr %1, align 8
  %45 = getelementptr inbounds nuw %struct.RangeFunction, ptr %44, i32 0, i32 5
  store ptr %43, ptr %45, align 8
  %46 = call ptr @pg_strtok(ptr noundef %3)
  store ptr %46, ptr %2, align 8
  %47 = call ptr @nodeRead(ptr noundef null, i32 noundef 0)
  %48 = load ptr, ptr %1, align 8
  %49 = getelementptr inbounds nuw %struct.RangeFunction, ptr %48, i32 0, i32 6
  store ptr %47, ptr %49, align 8
  %50 = load ptr, ptr %1, align 8
  call void @llvm.lifetime.end.p0(i64 4, ptr %3) #9
  call void @llvm.lifetime.end.p0(i64 8, ptr %2) #9
  call void @llvm.lifetime.end.p0(i64 8, ptr %1) #9
  ret ptr %50
}